; Function Attrs: mustprogress uwtable
define internal fastcc void @_ZN7Imf_3_212_GLOBAL__N_119prefixFromLayerNameERKNSt7__cxx1112basic_stringIcSt11char_traitsIcESaIcEEERKNS_6HeaderE(ptr noalias align 8 %agg.result, ptr noundef nonnull align 8 dereferenceable(32) %layerName, ptr noundef nonnull align 8 dereferenceable(49) %header) unnamed_addr #3 personality ptr @__gxx_personality_v0 {
entry:
  %ref.tmp = alloca %"class.std::allocator.5", align 1
  %ref.tmp6 = alloca %"class.std::allocator.5", align 1
  %call = tail call noundef zeroext i1 @_ZNKSt7__cxx1112basic_stringIcSt11char_traitsIcESaIcEE5emptyEv(ptr noundef nonnull align 8 dereferenceable(32) %layerName) #25
  br i1 %call, label %if.then, label %if.end

if.then:                                          ; preds = %entry
  call void @_ZNSaIcEC1Ev(ptr noundef nonnull align 1 dereferenceable(1) %ref.tmp) #25
  %call.i5 = invoke noundef ptr @_ZNSt7__cxx1112basic_stringIcSt11char_traitsIcESaIcEE13_M_local_dataEv(ptr noundef nonnull align 8 dereferenceable(32) %agg.result)
          to label %call.i.noexc unwind label %lpad

call.i.noexc:                                     ; preds = %if.then
  invoke void @_ZNSt7__cxx1112basic_stringIcSt11char_traitsIcESaIcEE12_Alloc_hiderC1EPcRKS3_(ptr noundef nonnull align 8 dereferenceable(8) %agg.result, ptr noundef %call.i5, ptr noundef nonnull align 1 dereferenceable(1) %ref.tmp)
          to label %.noexc unwind label %lpad

.noexc:                                           ; preds = %call.i.noexc
  invoke void @_ZNSt7__cxx1112basic_stringIcSt11char_traitsIcESaIcEE12_M_constructIPKcEEvT_S8_St20forward_iterator_tag(ptr noundef nonnull align 8 dereferenceable(32) %agg.result, ptr noundef nonnull @.str.9, ptr noundef nonnull @.str.9)
          to label %return.sink.split unwind label %lpad.i

lpad.i:                                           ; preds = %.noexc
  %0 = landingpad { ptr, i32 }
          cleanup
  call void @_ZNSaIcED2Ev(ptr noundef nonnull align 1 dereferenceable(1) %agg.result) #25
  br label %lpad.body

lpad:                                             ; preds = %call.i.noexc, %if.then
  %1 = landingpad { ptr, i32 }
          cleanup
  br label %lpad.body

lpad.body:                                        ; preds = %lpad.i, %lpad
  %eh.lpad-body = phi { ptr, i32 } [ %1, %lpad ], [ %0, %lpad.i ]
  call void @_ZNSaIcED1Ev(ptr noundef nonnull align 1 dereferenceable(1) %ref.tmp) #25
  br label %common.resume

if.end:                                           ; preds = %entry
  %call1 = tail call noundef zeroext i1 @_ZN7Imf_3_212hasMultiViewERKNS_6HeaderE(ptr noundef nonnull align 8 dereferenceable(49) %header)
  br i1 %call1, label %land.lhs.true, label %if.end9

land.lhs.true:                                    ; preds = %if.end
  %call2 = tail call noundef nonnull align 8 dereferenceable(24) ptr @_ZN7Imf_3_29multiViewB5cxx11ERKNS_6HeaderE(ptr noundef nonnull align 8 dereferenceable(49) %header)
  %2 = load ptr, ptr %call2, align 8
  %call.i = tail call noundef i64 @_ZNKSt7__cxx1112basic_stringIcSt11char_traitsIcESaIcEE4sizeEv(ptr noundef nonnull align 8 dereferenceable(32) %2) #25
  %call1.i = tail call noundef i64 @_ZNKSt7__cxx1112basic_stringIcSt11char_traitsIcESaIcEE4sizeEv(ptr noundef nonnull align 8 dereferenceable(32) %layerName) #25
  %cmp.i = icmp eq i64 %call.i, %call1.i
  br i1 %cmp.i, label %land.rhs.i, label %if.end9

land.rhs.i:                                       ; preds = %land.lhs.true
  %call2.i = tail call noundef ptr @_ZNKSt7__cxx1112basic_stringIcSt11char_traitsIcESaIcEE4dataEv(ptr noundef nonnull align 8 dereferenceable(32) %2) #25
  %call3.i = tail call noundef ptr @_ZNKSt7__cxx1112basic_stringIcSt11char_traitsIcESaIcEE4dataEv(ptr noundef nonnull align 8 dereferenceable(32) %layerName) #25
  %call4.i = tail call noundef i64 @_ZNKSt7__cxx1112basic_stringIcSt11char_traitsIcESaIcEE4sizeEv(ptr noundef nonnull align 8 dereferenceable(32) %2) #25
  %cmp.i.i = icmp eq i64 %call4.i, 0
  br i1 %cmp.i.i, label %if.then5, label %_ZSteqIcEN9__gnu_cxx11__enable_ifIXsr9__is_charIT_EE7__valueEbE6__typeERKNSt7__cxx1112basic_stringIS2_St11char_traitsIS2_ESaIS2_EEESC_.exit

_ZSteqIcEN9__gnu_cxx11__enable_ifIXsr9__is_charIT_EE7__valueEbE6__typeERKNSt7__cxx1112basic_stringIS2_St11char_traitsIS2_ESaIS2_EEESC_.exit: ; preds = %land.rhs.i
  %bcmp.i = tail call i32 @bcmp(ptr %call2.i, ptr %call3.i, i64 %call4.i)
  %3 = icmp eq i32 %bcmp.i, 0
  br i1 %3, label %if.then5, label %if.end9

if.then5:                                         ; preds = %land.rhs.i, %_ZSteqIcEN9__gnu_cxx11__enable_ifIXsr9__is_charIT_EE7__valueEbE6__typeERKNSt7__cxx1112basic_stringIS2_St11char_traitsIS2_ESaIS2_EEESC_.exit
  call void @_ZNSaIcEC1Ev(ptr noundef nonnull align 1 dereferenceable(1) %ref.tmp6) #25
  %call.i610 = invoke noundef ptr @_ZNSt7__cxx1112basic_stringIcSt11char_traitsIcESaIcEE13_M_local_dataEv(ptr noundef nonnull align 8 dereferenceable(32) %agg.result)
          to label %call.i6.noexc unwind label %lpad7

call.i6.noexc:                                    ; preds = %if.then5
  invoke void @_ZNSt7__cxx1112basic_stringIcSt11char_traitsIcESaIcEE12_Alloc_hiderC1EPcRKS3_(ptr noundef nonnull align 8 dereferenceable(8) %agg.result, ptr noundef %call.i610, ptr noundef nonnull align 1 dereferenceable(1) %ref.tmp6)
          to label %.noexc11 unwind label %lpad7

.noexc11:                                         ; preds = %call.i6.noexc
  invoke void @_ZNSt7__cxx1112basic_stringIcSt11char_traitsIcESaIcEE12_M_constructIPKcEEvT_S8_St20forward_iterator_tag(ptr noundef nonnull align 8 dereferenceable(32) %agg.result, ptr noundef nonnull @.str.9, ptr noundef nonnull @.str.9)
          to label %return.sink.split unwind label %lpad.i9

lpad.i9:                                          ; preds = %.noexc11
  %4 = landingpad { ptr, i32 }
          cleanup
  call void @_ZNSaIcED2Ev(ptr noundef nonnull align 1 dereferenceable(1) %agg.result) #25
  br label %lpad7.body

lpad7:                                            ; preds = %call.i6.noexc, %if.then5
  %5 = landingpad { ptr, i32 }
          cleanup
  br label %lpad7.body

lpad7.body:                                       ; preds = %lpad.i9, %lpad7
  %eh.lpad-body12 = phi { ptr, i32 } [ %5, %lpad7 ], [ %4, %lpad.i9 ]
  call void @_ZNSaIcED1Ev(ptr noundef nonnull align 1 dereferenceable(1) %ref.tmp6) #25
  br label %common.resume

if.end9:                                          ; preds = %land.lhs.true, %_ZSteqIcEN9__gnu_cxx11__enable_ifIXsr9__is_charIT_EE7__valueEbE6__typeERKNSt7__cxx1112basic_stringIS2_St11char_traitsIS2_ESaIS2_EEESC_.exit, %if.end
  tail call void @_ZNSt7__cxx1112basic_stringIcSt11char_traitsIcESaIcEEC1ERKS4_(ptr noundef nonnull align 8 dereferenceable(32) %agg.result, ptr noundef nonnull align 8 dereferenceable(32) %layerName)
  %call.i14 = invoke noundef nonnull align 8 dereferenceable(32) ptr @_ZNSt7__cxx1112basic_stringIcSt11char_traitsIcESaIcEE6appendEPKc(ptr noundef nonnull align 8 dereferenceable(32) %agg.result, ptr noundef nonnull @.str.11)
          to label %return unwind label %lpad.i15

common.resume:                                    ; preds = %lpad.body, %lpad7.body, %lpad.i15
  %common.resume.op = phi { ptr, i32 } [ %6, %lpad.i15 ], [ %eh.lpad-body, %lpad.body ], [ %eh.lpad-body12, %lpad7.body ]
  resume { ptr, i32 } %common.resume.op

lpad.i15:                                         ; preds = %if.end9
  %6 = landingpad { ptr, i32 }
          cleanup
  tail call void @_ZNSt7__cxx1112basic_stringIcSt11char_traitsIcESaIcEED1Ev(ptr noundef nonnull align 8 dereferenceable(32) %agg.result) #25
  br label %common.resume

return.sink.split:                                ; preds = %.noexc11, %.noexc
  %ref.tmp6.sink = phi ptr [ %ref.tmp, %.noexc ], [ %ref.tmp6, %.noexc11 ]
  call void @_ZNSaIcED1Ev(ptr noundef nonnull align 1 dereferenceable(1) %ref.tmp6.sink) #25
  br label %return

return:                                           ; preds = %return.sink.split, %if.end9
  ret void
}